target datalayout = "e-m:e-p270:32:32-p271:32:32-p272:64:64-i64:64-i128:128-f80:128-n8:16:32:64-S128"
target triple = "x86_64-pc-linux-gnu"

%struct.JNINativeInterface_ = type { ptr, ptr, ptr, ptr, ptr, ptr, ptr, ptr, ptr, ptr, ptr, ptr, ptr, ptr, ptr, ptr, ptr, ptr, ptr, ptr, ptr, ptr, ptr, ptr, ptr, ptr, ptr, ptr, ptr, ptr, ptr, ptr, ptr, ptr, ptr, ptr, ptr, ptr, ptr, ptr, ptr, ptr, ptr, ptr, ptr, ptr, ptr, ptr, ptr, ptr, ptr, ptr, ptr, ptr, ptr, ptr, ptr, ptr, ptr, ptr, ptr, ptr, ptr, ptr, ptr, ptr, ptr, ptr, ptr, ptr, ptr, ptr, ptr, ptr, ptr, ptr, ptr, ptr, ptr, ptr, ptr, ptr, ptr, ptr, ptr, ptr, ptr, ptr, ptr, ptr, ptr, ptr, ptr, ptr, ptr, ptr, ptr, ptr, ptr, ptr, ptr, ptr, ptr, ptr, ptr, ptr, ptr, ptr, ptr, ptr, ptr, ptr, ptr, ptr, ptr, ptr, ptr, ptr, ptr, ptr, ptr, ptr, ptr, ptr, ptr, ptr, ptr, ptr, ptr, ptr, ptr, ptr, ptr, ptr, ptr, ptr, ptr, ptr, ptr, ptr, ptr, ptr, ptr, ptr, ptr, ptr, ptr, ptr, ptr, ptr, ptr, ptr, ptr, ptr, ptr, ptr, ptr, ptr, ptr, ptr, ptr, ptr, ptr, ptr, ptr, ptr, ptr, ptr, ptr, ptr, ptr, ptr, ptr, ptr, ptr, ptr, ptr, ptr, ptr, ptr, ptr, ptr, ptr, ptr, ptr, ptr, ptr, ptr, ptr, ptr, ptr, ptr, ptr, ptr, ptr, ptr, ptr, ptr, ptr, ptr, ptr, ptr, ptr, ptr, ptr, ptr, ptr, ptr, ptr, ptr, ptr, ptr, ptr, ptr, ptr, ptr, ptr, ptr, ptr, ptr, ptr, ptr, ptr, ptr, ptr, ptr, ptr, ptr, ptr, ptr, ptr, ptr, ptr, ptr, ptr }
%struct.tag_ControlCreatorJNI = type { %struct.tag_PortControlCreator, ptr, ptr, ptr, ptr, ptr, ptr, ptr, ptr, ptr, ptr, ptr }
%struct.tag_PortControlCreator = type { ptr, ptr, ptr, ptr }

@.str.1 = private unnamed_addr constant [7 x i8] c"<init>\00", align 1
@.str.5 = private unnamed_addr constant [39 x i8] c"com/sun/media/sound/PortMixer$CompCtrl\00", align 1
@.str.6 = private unnamed_addr constant [52 x i8] c"(Ljava/lang/String;[Ljavax/sound/sampled/Control;)V\00", align 1
@.str.7 = private unnamed_addr constant [28 x i8] c"javax/sound/sampled/Control\00", align 1

; Function Attrs: nounwind uwtable
define hidden ptr @PORT_NewCompoundControl(ptr noundef %0, ptr noundef %1, ptr noundef %2, i32 noundef %3) #0 {
  %5 = alloca ptr, align 8
  %6 = alloca ptr, align 8
  %7 = alloca ptr, align 8
  %8 = alloca ptr, align 8
  %9 = alloca i32, align 4
  %10 = alloca ptr, align 8
  %11 = alloca ptr, align 8
  %12 = alloca ptr, align 8
  %13 = alloca i32, align 4
  %14 = alloca ptr, align 8
  store ptr %0, ptr %6, align 8
  store ptr %1, ptr %7, align 8
  store ptr %2, ptr %8, align 8
  store i32 %3, ptr %9, align 4
  %15 = load ptr, ptr %6, align 8
  store ptr %15, ptr %10, align 8
  store ptr null, ptr %11, align 8
  %16 = load ptr, ptr %10, align 8
  %17 = getelementptr inbounds %struct.tag_ControlCreatorJNI, ptr %16, i32 0, i32 7
  %18 = load ptr, ptr %17, align 8
  %19 = icmp ne ptr %18, null
  br i1 %19, label %78, label %20

20:                                               ; preds = %4
  %21 = load ptr, ptr %10, align 8
  %22 = getelementptr inbounds %struct.tag_ControlCreatorJNI, ptr %21, i32 0, i32 1
  %23 = load ptr, ptr %22, align 8
  %24 = load ptr, ptr %23, align 8
  %25 = getelementptr inbounds %struct.JNINativeInterface_, ptr %24, i32 0, i32 6
  %26 = load ptr, ptr %25, align 8
  %27 = load ptr, ptr %10, align 8
  %28 = getelementptr inbounds %struct.tag_ControlCreatorJNI, ptr %27, i32 0, i32 1
  %29 = load ptr, ptr %28, align 8
  %30 = call ptr %26(ptr noundef %29, ptr noundef @.str.5)
  %31 = load ptr, ptr %10, align 8
  %32 = getelementptr inbounds %struct.tag_ControlCreatorJNI, ptr %31, i32 0, i32 7
  store ptr %30, ptr %32, align 8
  %33 = load ptr, ptr %10, align 8
  %34 = getelementptr inbounds %struct.tag_ControlCreatorJNI, ptr %33, i32 0, i32 7
  %35 = load ptr, ptr %34, align 8
  %36 = icmp ne ptr %35, null
  br i1 %36, label %38, label %37

37:                                               ; preds = %20
  store ptr null, ptr %5, align 8
  br label %176

38:                                               ; preds = %20
  %39 = load ptr, ptr %10, align 8
  %40 = getelementptr inbounds %struct.tag_ControlCreatorJNI, ptr %39, i32 0, i32 1
  %41 = load ptr, ptr %40, align 8
  %42 = load ptr, ptr %41, align 8
  %43 = getelementptr inbounds %struct.JNINativeInterface_, ptr %42, i32 0, i32 33
  %44 = load ptr, ptr %43, align 8
  %45 = load ptr, ptr %10, align 8
  %46 = getelementptr inbounds %struct.tag_ControlCreatorJNI, ptr %45, i32 0, i32 1
  %47 = load ptr, ptr %46, align 8
  %48 = load ptr, ptr %10, align 8
  %49 = getelementptr inbounds %struct.tag_ControlCreatorJNI, ptr %48, i32 0, i32 7
  %50 = load ptr, ptr %49, align 8
  %51 = call ptr %44(ptr noundef %47, ptr noundef %50, ptr noundef @.str.1, ptr noundef @.str.6)
  %52 = load ptr, ptr %10, align 8
  %53 = getelementptr inbounds %struct.tag_ControlCreatorJNI, ptr %52, i32 0, i32 8
  store ptr %51, ptr %53, align 8
  %54 = load ptr, ptr %10, align 8
  %55 = getelementptr inbounds %struct.tag_ControlCreatorJNI, ptr %54, i32 0, i32 8
  %56 = load ptr, ptr %55, align 8
  %57 = icmp ne ptr %56, null
  br i1 %57, label %59, label %58

58:                                               ; preds = %38
  store ptr null, ptr %5, align 8
  br label %176

59:                                               ; preds = %38
  %60 = load ptr, ptr %10, align 8
  %61 = getelementptr inbounds %struct.tag_ControlCreatorJNI, ptr %60, i32 0, i32 1
  %62 = load ptr, ptr %61, align 8
  %63 = load ptr, ptr %62, align 8
  %64 = getelementptr inbounds %struct.JNINativeInterface_, ptr %63, i32 0, i32 6
  %65 = load ptr, ptr %64, align 8
  %66 = load ptr, ptr %10, align 8
  %67 = getelementptr inbounds %struct.tag_ControlCreatorJNI, ptr %66, i32 0, i32 1
  %68 = load ptr, ptr %67, align 8
  %69 = call ptr %65(ptr noundef %68, ptr noundef @.str.7)
  %70 = load ptr, ptr %10, align 8
  %71 = getelementptr inbounds %struct.tag_ControlCreatorJNI, ptr %70, i32 0, i32 6
  store ptr %69, ptr %71, align 8
  %72 = load ptr, ptr %10, align 8
  %73 = getelementptr inbounds %struct.tag_ControlCreatorJNI, ptr %72, i32 0, i32 6
  %74 = load ptr, ptr %73, align 8
  %75 = icmp ne ptr %74, null
  br i1 %75, label %77, label %76

76:                                               ; preds = %59
  store ptr null, ptr %5, align 8
  br label %176

77:                                               ; preds = %59
  br label %78

78:                                               ; preds = %77, %4
  %79 = load ptr, ptr %10, align 8
  %80 = getelementptr inbounds %struct.tag_ControlCreatorJNI, ptr %79, i32 0, i32 1
  %81 = load ptr, ptr %80, align 8
  %82 = load ptr, ptr %81, align 8
  %83 = getelementptr inbounds %struct.JNINativeInterface_, ptr %82, i32 0, i32 172
  %84 = load ptr, ptr %83, align 8
  %85 = load ptr, ptr %10, align 8
  %86 = getelementptr inbounds %struct.tag_ControlCreatorJNI, ptr %85, i32 0, i32 1
  %87 = load ptr, ptr %86, align 8
  %88 = load i32, ptr %9, align 4
  %89 = load ptr, ptr %10, align 8
  %90 = getelementptr inbounds %struct.tag_ControlCreatorJNI, ptr %89, i32 0, i32 6
  %91 = load ptr, ptr %90, align 8
  %92 = call ptr %84(ptr noundef %87, i32 noundef %88, ptr noundef %91, ptr noundef null)
  store ptr %92, ptr %12, align 8
  %93 = load ptr, ptr %12, align 8
  %94 = icmp ne ptr %93, null
  br i1 %94, label %96, label %95

95:                                               ; preds = %78
  store ptr null, ptr %5, align 8
  br label %176

96:                                               ; preds = %78
  store i32 0, ptr %13, align 4
  br label %97

97:                                               ; preds = %118, %96
  %98 = load i32, ptr %13, align 4
  %99 = load i32, ptr %9, align 4
  %100 = icmp slt i32 %98, %99
  br i1 %100, label %101, label %121

101:                                              ; preds = %97
  %102 = load ptr, ptr %10, align 8
  %103 = getelementptr inbounds %struct.tag_ControlCreatorJNI, ptr %102, i32 0, i32 1
  %104 = load ptr, ptr %103, align 8
  %105 = load ptr, ptr %104, align 8
  %106 = getelementptr inbounds %struct.JNINativeInterface_, ptr %105, i32 0, i32 174
  %107 = load ptr, ptr %106, align 8
  %108 = load ptr, ptr %10, align 8
  %109 = getelementptr inbounds %struct.tag_ControlCreatorJNI, ptr %108, i32 0, i32 1
  %110 = load ptr, ptr %109, align 8
  %111 = load ptr, ptr %12, align 8
  %112 = load i32, ptr %13, align 4
  %113 = load ptr, ptr %8, align 8
  %114 = load i32, ptr %13, align 4
  %115 = sext i32 %114 to i64
  %116 = getelementptr inbounds ptr, ptr %113, i64 %115
  %117 = load ptr, ptr %116, align 8
  call void %107(ptr noundef %110, ptr noundef %111, i32 noundef %112, ptr noundef %117)
  br label %118

118:                                              ; preds = %101
  %119 = load i32, ptr %13, align 4
  %120 = add nsw i32 %119, 1
  store i32 %120, ptr %13, align 4
  br label %97, !llvm.loop !6

121:                                              ; preds = %97
  %122 = load ptr, ptr %10, align 8
  %123 = getelementptr inbounds %struct.tag_ControlCreatorJNI, ptr %122, i32 0, i32 1
  %124 = load ptr, ptr %123, align 8
  %125 = load ptr, ptr %124, align 8
  %126 = getelementptr inbounds %struct.JNINativeInterface_, ptr %125, i32 0, i32 167
  %127 = load ptr, ptr %126, align 8
  %128 = load ptr, ptr %10, align 8
  %129 = getelementptr inbounds %struct.tag_ControlCreatorJNI, ptr %128, i32 0, i32 1
  %130 = load ptr, ptr %129, align 8
  %131 = load ptr, ptr %7, align 8
  %132 = call ptr %127(ptr noundef %130, ptr noundef %131)
  store ptr %132, ptr %14, align 8
  br label %133

133:                                              ; preds = %121
  %134 = load ptr, ptr %14, align 8
  %135 = icmp eq ptr %134, null
  br i1 %135, label %136, label %138

136:                                              ; preds = %133
  %137 = load ptr, ptr %11, align 8
  store ptr %137, ptr %5, align 8
  br label %176

138:                                              ; preds = %133
  br label %139

139:                                              ; preds = %138
  %140 = load ptr, ptr %10, align 8
  %141 = getelementptr inbounds %struct.tag_ControlCreatorJNI, ptr %140, i32 0, i32 1
  %142 = load ptr, ptr %141, align 8
  %143 = load ptr, ptr %142, align 8
  %144 = getelementptr inbounds %struct.JNINativeInterface_, ptr %143, i32 0, i32 28
  %145 = load ptr, ptr %144, align 8
  %146 = load ptr, ptr %10, align 8
  %147 = getelementptr inbounds %struct.tag_ControlCreatorJNI, ptr %146, i32 0, i32 1
  %148 = load ptr, ptr %147, align 8
  %149 = load ptr, ptr %10, align 8
  %150 = getelementptr inbounds %struct.tag_ControlCreatorJNI, ptr %149, i32 0, i32 7
  %151 = load ptr, ptr %150, align 8
  %152 = load ptr, ptr %10, align 8
  %153 = getelementptr inbounds %struct.tag_ControlCreatorJNI, ptr %152, i32 0, i32 8
  %154 = load ptr, ptr %153, align 8
  %155 = load ptr, ptr %14, align 8
  %156 = load ptr, ptr %12, align 8
  %157 = call ptr (ptr, ptr, ptr, ...) %145(ptr noundef %148, ptr noundef %151, ptr noundef %154, ptr noundef %155, ptr noundef %156)
  store ptr %157, ptr %11, align 8
  %158 = load ptr, ptr %11, align 8
  %159 = icmp ne ptr %158, null
  br i1 %159, label %161, label %160

160:                                              ; preds = %139
  br label %161

161:                                              ; preds = %160, %139
  %162 = load ptr, ptr %10, align 8
  %163 = getelementptr inbounds %struct.tag_ControlCreatorJNI, ptr %162, i32 0, i32 1
  %164 = load ptr, ptr %163, align 8
  %165 = load ptr, ptr %164, align 8
  %166 = getelementptr inbounds %struct.JNINativeInterface_, ptr %165, i32 0, i32 15
  %167 = load ptr, ptr %166, align 8
  %168 = load ptr, ptr %10, align 8
  %169 = getelementptr inbounds %struct.tag_ControlCreatorJNI, ptr %168, i32 0, i32 1
  %170 = load ptr, ptr %169, align 8
  %171 = call ptr %167(ptr noundef %170)
  %172 = icmp ne ptr %171, null
  br i1 %172, label %173, label %174

173:                                              ; preds = %161
  br label %174

174:                                              ; preds = %173, %161
  %175 = load ptr, ptr %11, align 8
  store ptr %175, ptr %5, align 8
  br label %176

176:                                              ; preds = %174, %136, %95, %76, %58, %37
  %177 = load ptr, ptr %5, align 8
  ret ptr %177
}