; Function Attrs: nounwind uwtable
define hidden ptr @PORT_NewCompoundControl(ptr nocapture noundef %0, ptr noundef %1, ptr nocapture noundef readonly %2, i32 noundef %3) #0 {
  %5 = getelementptr inbounds i8, ptr %0, i64 80
  %6 = load ptr, ptr %5, align 8
  %.not = icmp eq ptr %6, null
  br i1 %.not, label %7, label %._crit_edge54

._crit_edge54:                                    ; preds = %4
  %.phi.trans.insert = getelementptr inbounds i8, ptr %0, i64 72
  %.pre = load ptr, ptr %.phi.trans.insert, align 8
  br label %28

7:                                                ; preds = %4
  %8 = getelementptr inbounds i8, ptr %0, i64 32
  %9 = load ptr, ptr %8, align 8
  %10 = load ptr, ptr %9, align 8
  %11 = getelementptr inbounds i8, ptr %10, i64 48
  %12 = load ptr, ptr %11, align 8
  %13 = tail call ptr %12(ptr noundef nonnull %9, ptr noundef nonnull @.str.5) #3
  store ptr %13, ptr %5, align 8
  %.not48 = icmp eq ptr %13, null
  br i1 %.not48, label %64, label %14

14:                                               ; preds = %7
  %15 = load ptr, ptr %8, align 8
  %16 = load ptr, ptr %15, align 8
  %17 = getelementptr inbounds i8, ptr %16, i64 264
  %18 = load ptr, ptr %17, align 8
  %19 = tail call ptr %18(ptr noundef nonnull %15, ptr noundef nonnull %13, ptr noundef nonnull @.str.1, ptr noundef nonnull @.str.6) #3
  %20 = getelementptr inbounds i8, ptr %0, i64 88
  store ptr %19, ptr %20, align 8
  %.not49 = icmp eq ptr %19, null
  br i1 %.not49, label %64, label %21

21:                                               ; preds = %14
  %22 = load ptr, ptr %8, align 8
  %23 = load ptr, ptr %22, align 8
  %24 = getelementptr inbounds i8, ptr %23, i64 48
  %25 = load ptr, ptr %24, align 8
  %26 = tail call ptr %25(ptr noundef nonnull %22, ptr noundef nonnull @.str.7) #3
  %27 = getelementptr inbounds i8, ptr %0, i64 72
  store ptr %26, ptr %27, align 8
  %.not50 = icmp eq ptr %26, null
  br i1 %.not50, label %64, label %28

28:                                               ; preds = %._crit_edge54, %21
  %29 = phi ptr [ %.pre, %._crit_edge54 ], [ %26, %21 ]
  %30 = getelementptr inbounds i8, ptr %0, i64 32
  %31 = load ptr, ptr %30, align 8
  %32 = load ptr, ptr %31, align 8
  %33 = getelementptr inbounds i8, ptr %32, i64 1376
  %34 = load ptr, ptr %33, align 8
  %35 = tail call ptr %34(ptr noundef nonnull %31, i32 noundef %3, ptr noundef %29, ptr noundef null) #3
  %.not51 = icmp eq ptr %35, null
  br i1 %.not51, label %64, label %.preheader

.preheader:                                       ; preds = %28
  %36 = icmp sgt i32 %3, 0
  br i1 %36, label %.lr.ph.preheader, label %._crit_edge

.lr.ph.preheader:                                 ; preds = %.preheader
  %wide.trip.count = zext nneg i32 %3 to i64
  br label %.lr.ph

.lr.ph:                                           ; preds = %.lr.ph.preheader, %.lr.ph
  %indvars.iv = phi i64 [ 0, %.lr.ph.preheader ], [ %indvars.iv.next, %.lr.ph ]
  %37 = load ptr, ptr %30, align 8
  %38 = load ptr, ptr %37, align 8
  %39 = getelementptr inbounds i8, ptr %38, i64 1392
  %40 = load ptr, ptr %39, align 8
  %41 = getelementptr inbounds ptr, ptr %2, i64 %indvars.iv
  %42 = load ptr, ptr %41, align 8
  %43 = trunc nuw nsw i64 %indvars.iv to i32
  tail call void %40(ptr noundef nonnull %37, ptr noundef nonnull %35, i32 noundef %43, ptr noundef %42) #3
  %indvars.iv.next = add nuw nsw i64 %indvars.iv, 1
  %exitcond.not = icmp eq i64 %indvars.iv.next, %wide.trip.count
  br i1 %exitcond.not, label %._crit_edge, label %.lr.ph, !llvm.loop !6

._crit_edge:                                      ; preds = %.lr.ph, %.preheader
  %44 = load ptr, ptr %30, align 8
  %45 = load ptr, ptr %44, align 8
  %46 = getelementptr inbounds i8, ptr %45, i64 1336
  %47 = load ptr, ptr %46, align 8
  %48 = tail call ptr %47(ptr noundef nonnull %44, ptr noundef %1) #3
  %49 = icmp eq ptr %48, null
  br i1 %49, label %64, label %50

50:                                               ; preds = %._crit_edge
  %51 = load ptr, ptr %30, align 8
  %52 = load ptr, ptr %51, align 8
  %53 = getelementptr inbounds i8, ptr %52, i64 224
  %54 = load ptr, ptr %53, align 8
  %55 = load ptr, ptr %5, align 8
  %56 = getelementptr inbounds i8, ptr %0, i64 88
  %57 = load ptr, ptr %56, align 8
  %58 = tail call ptr (ptr, ptr, ptr, ...) %54(ptr noundef nonnull %51, ptr noundef %55, ptr noundef %57, ptr noundef nonnull %48, ptr noundef nonnull %35) #3
  %59 = load ptr, ptr %30, align 8
  %60 = load ptr, ptr %59, align 8
  %61 = getelementptr inbounds i8, ptr %60, i64 120
  %62 = load ptr, ptr %61, align 8
  %63 = tail call ptr %62(ptr noundef nonnull %59) #3
  br label %64

64:                                               ; preds = %._crit_edge, %28, %21, %14, %7, %50
  %.0 = phi ptr [ %58, %50 ], [ null, %7 ], [ null, %14 ], [ null, %21 ], [ null, %28 ], [ null, %._crit_edge ]
  ret ptr %.0
}